target datalayout = "e-m:e-p270:32:32-p271:32:32-p272:64:64-i64:64-i128:128-f80:128-n8:16:32:64-S128"
target triple = "x86_64-pc-linux-gnu"

%struct.AVRational = type { i32, i32 }
%struct.AVCodecContext = type { ptr, i32, i32, ptr, i32, i32, ptr, ptr, ptr, i64, i32, i32, ptr, i32, %struct.AVRational, %struct.AVRational, %struct.AVRational, i32, i32, i32, i32, i32, %struct.AVRational, i32, i32, i32, i32, i32, i32, i32, i32, i32, i32, i32, ptr, ptr, i32, float, float, float, float, float, float, float, float, float, i32, i32, i32, i32, i32, i32, i32, i32, i32, i32, i32, i32, ptr, ptr, ptr, i32, i32, i32, i32, i32, i32, i32, i32, i32, i32, %struct.AVChannelLayout, i32, i32, i32, i32, i32, i32, i32, i32, ptr, i32, i32, i32, float, float, i32, i32, i32, i32, i32, ptr, i64, i64, float, float, i32, i32, ptr, ptr, i32, i32, i32, i32, i32, ptr, ptr, ptr, ptr, i32, i32, [8 x i64], i32, i32, i32, i32, i32, i32, i32, ptr, ptr, i32, i32, i32, i32, i32, i32, i32, i32, i32, i32, ptr, ptr, i32, i32, ptr, ptr, ptr, ptr, i32, i32, i64, i32, i32, i64, ptr, i64, ptr, i32, ptr, i32 }
%struct.AVChannelLayout = type { i32, i32, %union.anon.0, ptr }
%union.anon.0 = type { i64 }
%struct.MpegEncContext = type { ptr, i32, i32, i32, [12 x i32], i32, %struct.ScanTable, %struct.ScanTable, [64 x i8], [64 x i8], ptr, ptr, i32, i32, i32, i32, i32, i32, i32, i32, i32, i32, i32, i32, i32, i32, i32, i32, i32, i32, i32, i32, i64, i64, ptr, %struct.BufferPoolContext, i32, i32, %union.anon.1, i32, %struct.MPVWorkPicture, %struct.MPVWorkPicture, %struct.MPVWorkPicture, i32, [3 x i32], ptr, [3 x ptr], ptr, ptr, ptr, ptr, ptr, ptr, [3 x ptr], i32, ptr, ptr, ptr, ptr, %struct.ScratchpadContext, i32, i32, i32, i32, i32, i32, %struct.BlockDSPContext, %struct.H264ChromaContext, %struct.HpelDSPContext, %struct.IDCTDSPContext, %struct.QpelDSPContext, %struct.VideoDSPContext, %struct.H263DSPContext, ptr, [2 x [2 x ptr]], i32, i32, [2 x [4 x [2 x i32]]], [2 x [2 x i32]], [2 x [2 x [2 x i32]]], [2 x [64 x i16]], i32, i32, i32, i32, i32, [6 x i32], [6 x i32], [3 x ptr], ptr, [64 x i16], [64 x i16], [64 x i16], [64 x i16], i32, i32, %struct.GetBitContext, i32, i32, i32, i32, i32, i32, i32, i32, i32, i32, i32, i32, i32, i32, i32, i64, i64, i16, i16, i16, i16, i32, i32, i32, i32, i32, i32, i32, i32, i32, [3 x i32], i32, i32, i32, i32, i32, i32, %struct.GetBitContext, i32, [2 x [2 x i32]], i32, i32, i32, i32, i32, i32, i32, i32, i32, i32, i32, i32, i32, i32, [2 x i32], i32, i32, ptr, ptr, ptr, ptr, ptr, i32, i32, %struct.ERContext }
%struct.ScanTable = type { ptr, [64 x i8], [64 x i8] }
%struct.BufferPoolContext = type { ptr, ptr, ptr, ptr, ptr, i32, i32, i32 }
%union.anon.1 = type { [32 x ptr] }
%struct.MPVWorkPicture = type { [3 x ptr], [3 x i64], ptr, ptr, [2 x ptr], ptr, ptr, [2 x ptr], i32 }
%struct.ScratchpadContext = type { ptr, ptr, %union.anon.2, i32 }
%union.anon.2 = type { ptr }
%struct.BlockDSPContext = type { ptr, ptr, [2 x ptr] }
%struct.H264ChromaContext = type { [4 x ptr], [4 x ptr] }
%struct.HpelDSPContext = type { [4 x [4 x ptr]], [4 x [4 x ptr]], [4 x [4 x ptr]], [4 x ptr] }
%struct.IDCTDSPContext = type { ptr, ptr, ptr, ptr, ptr, ptr, [64 x i8], i32, i32 }
%struct.QpelDSPContext = type { [2 x [16 x ptr]], [2 x [16 x ptr]], [2 x [16 x ptr]] }
%struct.VideoDSPContext = type { ptr, ptr }
%struct.H263DSPContext = type { ptr, ptr }
%struct.GetBitContext = type { ptr, ptr, i32, i32, i32 }
%struct.ERContext = type { ptr, ptr, i32, ptr, i32, i32, i32, i64, i64, i32, i32, ptr, ptr, [3 x ptr], ptr, ptr, [2 x [4 x [2 x i32]]], %struct.ERPicture, %struct.ERPicture, %struct.ERPicture, [2 x ptr], [2 x ptr], i16, i16, i32, i32, ptr, ptr }
%struct.ERPicture = type { ptr, ptr, ptr, [2 x ptr], [2 x ptr], ptr, i32 }
%struct.IPUContext = type { %struct.MpegEncContext, i32, [4 x i8], [6 x [64 x i16]] }

@ff_mpeg1_default_intra_matrix = external constant [0 x i16], align 2

; Function Attrs: cold nounwind optsize uwtable
define internal i32 @ipu_decode_init(ptr noundef %0) #0 {
  %2 = alloca ptr, align 8
  %3 = alloca ptr, align 8
  %4 = alloca ptr, align 8
  %5 = alloca i32, align 4
  %6 = alloca i32, align 4
  %7 = alloca i32, align 4
  store ptr %0, ptr %2, align 8, !tbaa !4
  call void @llvm.lifetime.start.p0(i64 8, ptr %3) #13
  %8 = load ptr, ptr %2, align 8, !tbaa !4
  %9 = getelementptr inbounds nuw %struct.AVCodecContext, ptr %8, i32 0, i32 6
  %10 = load ptr, ptr %9, align 8, !tbaa !9
  store ptr %10, ptr %3, align 8, !tbaa !92
  call void @llvm.lifetime.start.p0(i64 8, ptr %4) #13
  %11 = load ptr, ptr %3, align 8, !tbaa !92
  %12 = getelementptr inbounds nuw %struct.IPUContext, ptr %11, i32 0, i32 0
  store ptr %12, ptr %4, align 8, !tbaa !31
  %13 = load ptr, ptr %2, align 8, !tbaa !4
  %14 = getelementptr inbounds nuw %struct.AVCodecContext, ptr %13, i32 0, i32 23
  store i32 0, ptr %14, align 8, !tbaa !94
  %15 = load ptr, ptr %2, align 8, !tbaa !4
  %16 = load ptr, ptr %4, align 8, !tbaa !31
  %17 = getelementptr inbounds nuw %struct.MpegEncContext, ptr %16, i32 0, i32 10
  store ptr %15, ptr %17, align 8, !tbaa !95
  %18 = load ptr, ptr %4, align 8, !tbaa !31
  %19 = getelementptr inbounds nuw %struct.MpegEncContext, ptr %18, i32 0, i32 69
  %20 = load ptr, ptr %2, align 8, !tbaa !4
  call void @ff_idctdsp_init(ptr noundef %19, ptr noundef %20)
  call void @ff_mpeg12_init_vlcs()
  call void @llvm.lifetime.start.p0(i64 4, ptr %5) #13
  store i32 0, ptr %5, align 4, !tbaa !59
  br label %21

21:                                               ; preds = %53, %1
  %22 = load i32, ptr %5, align 4, !tbaa !59
  %23 = icmp slt i32 %22, 64
  br i1 %23, label %25, label %24

24:                                               ; preds = %21
  call void @llvm.lifetime.end.p0(i64 4, ptr %5) #13
  br label %56

25:                                               ; preds = %21
  call void @llvm.lifetime.start.p0(i64 4, ptr %6) #13
  %26 = load ptr, ptr %4, align 8, !tbaa !31
  %27 = getelementptr inbounds nuw %struct.MpegEncContext, ptr %26, i32 0, i32 69
  %28 = getelementptr inbounds nuw %struct.IDCTDSPContext, ptr %27, i32 0, i32 6
  %29 = load i32, ptr %5, align 4, !tbaa !59
  %30 = sext i32 %29 to i64
  %31 = getelementptr inbounds [64 x i8], ptr %28, i64 0, i64 %30
  %32 = load i8, ptr %31, align 1, !tbaa !56
  %33 = zext i8 %32 to i32
  store i32 %33, ptr %6, align 4, !tbaa !59
  call void @llvm.lifetime.start.p0(i64 4, ptr %7) #13
  %34 = load i32, ptr %5, align 4, !tbaa !59
  %35 = sext i32 %34 to i64
  %36 = getelementptr inbounds [0 x i16], ptr @ff_mpeg1_default_intra_matrix, i64 0, i64 %35
  %37 = load i16, ptr %36, align 2, !tbaa !96
  %38 = zext i16 %37 to i32
  store i32 %38, ptr %7, align 4, !tbaa !59
  %39 = load i32, ptr %7, align 4, !tbaa !59
  %40 = trunc i32 %39 to i16
  %41 = load ptr, ptr %4, align 8, !tbaa !31
  %42 = getelementptr inbounds nuw %struct.MpegEncContext, ptr %41, i32 0, i32 90
  %43 = load i32, ptr %6, align 4, !tbaa !59
  %44 = sext i32 %43 to i64
  %45 = getelementptr inbounds [64 x i16], ptr %42, i64 0, i64 %44
  store i16 %40, ptr %45, align 2, !tbaa !96
  %46 = load i32, ptr %7, align 4, !tbaa !59
  %47 = trunc i32 %46 to i16
  %48 = load ptr, ptr %4, align 8, !tbaa !31
  %49 = getelementptr inbounds nuw %struct.MpegEncContext, ptr %48, i32 0, i32 91
  %50 = load i32, ptr %6, align 4, !tbaa !59
  %51 = sext i32 %50 to i64
  %52 = getelementptr inbounds [64 x i16], ptr %49, i64 0, i64 %51
  store i16 %47, ptr %52, align 2, !tbaa !96
  call void @llvm.lifetime.end.p0(i64 4, ptr %7) #13
  call void @llvm.lifetime.end.p0(i64 4, ptr %6) #13
  br label %53

53:                                               ; preds = %25
  %54 = load i32, ptr %5, align 4, !tbaa !59
  %55 = add nsw i32 %54, 1
  store i32 %55, ptr %5, align 4, !tbaa !59
  br label %21, !llvm.loop !97

56:                                               ; preds = %24
  call void @llvm.lifetime.end.p0(i64 8, ptr %4) #13
  call void @llvm.lifetime.end.p0(i64 8, ptr %3) #13
  ret i32 0
}