; Function Attrs: cold nounwind optsize uwtable
define internal noundef i32 @ipu_decode_init(ptr noundef initializes((136, 140)) %0) #0 {
  %2 = getelementptr inbounds nuw i8, ptr %0, i64 32
  %3 = load ptr, ptr %2, align 8, !tbaa !4
  %4 = getelementptr inbounds nuw i8, ptr %0, i64 136
  store i32 0, ptr %4, align 8, !tbaa !71
  %5 = getelementptr inbounds nuw i8, ptr %3, i64 472
  store ptr %0, ptr %5, align 8, !tbaa !72
  %6 = getelementptr inbounds nuw i8, ptr %3, i64 2008
  tail call void @ff_idctdsp_init(ptr noundef nonnull %6, ptr noundef %0) #12
  tail call void @ff_mpeg12_init_vlcs() #12
  %7 = getelementptr inbounds nuw i8, ptr %3, i64 2056
  %8 = getelementptr inbounds nuw i8, ptr %3, i64 3448
  %9 = getelementptr inbounds nuw i8, ptr %3, i64 3576
  br label %11

10:                                               ; preds = %11
  ret i32 0

11:                                               ; preds = %1, %11
  %indvars.iv = phi i64 [ 0, %1 ], [ %indvars.iv.next, %11 ]
  %12 = getelementptr inbounds nuw [64 x i8], ptr %7, i64 0, i64 %indvars.iv
  %13 = load i8, ptr %12, align 1, !tbaa !58
  %14 = getelementptr inbounds nuw [0 x i16], ptr @ff_mpeg1_default_intra_matrix, i64 0, i64 %indvars.iv
  %15 = load i16, ptr %14, align 2, !tbaa !78
  %16 = zext i8 %13 to i64
  %17 = getelementptr inbounds nuw [64 x i16], ptr %8, i64 0, i64 %16
  store i16 %15, ptr %17, align 2, !tbaa !78
  %18 = getelementptr inbounds nuw [64 x i16], ptr %9, i64 0, i64 %16
  store i16 %15, ptr %18, align 2, !tbaa !78
  %indvars.iv.next = add nuw nsw i64 %indvars.iv, 1
  %exitcond.not = icmp eq i64 %indvars.iv.next, 64
  br i1 %exitcond.not, label %10, label %11, !llvm.loop !102
}